target datalayout = "e-m:e-p270:32:32-p271:32:32-p272:64:64-i64:64-i128:128-f80:128-n8:16:32:64-S128"
target triple = "x86_64-pc-linux-gnu"

%struct.uv_handle_s = type { ptr, ptr, i32, ptr, [2 x ptr], %union.anon.0, ptr, i32 }
%union.anon.0 = type { [4 x ptr] }
%struct.uv_loop_s = type { ptr, i32, [2 x ptr], %union.anon.1, ptr, i32, i64, i32, [2 x ptr], [2 x ptr], ptr, i32, i32, [2 x ptr], %union.pthread_mutex_t, %struct.uv_async_s, %union.pthread_rwlock_t, ptr, [2 x ptr], [2 x ptr], [2 x ptr], [2 x ptr], [2 x ptr], ptr, %struct.uv__io_s, i32, %struct.anon, i64, i64, [2 x i32], %struct.uv__io_s, %struct.uv_signal_s, i32, %struct.uv__io_s, ptr, i32 }
%union.anon.1 = type { ptr }
%union.pthread_mutex_t = type { %struct.__pthread_mutex_s }
%struct.__pthread_mutex_s = type { i32, i32, i32, i32, i32, i16, i16, %struct.__pthread_internal_list }
%struct.__pthread_internal_list = type { ptr, ptr }
%struct.uv_async_s = type { ptr, ptr, i32, ptr, [2 x ptr], %union.anon.2, ptr, i32, ptr, [2 x ptr], i32 }
%union.anon.2 = type { [4 x ptr] }
%union.pthread_rwlock_t = type { %struct.__pthread_rwlock_arch_t }
%struct.__pthread_rwlock_arch_t = type { i32, i32, i32, i32, i32, i32, i32, i32, i8, [7 x i8], i64, i32 }
%struct.anon = type { ptr, i32 }
%struct.uv_signal_s = type { ptr, ptr, i32, ptr, [2 x ptr], %union.anon.3, ptr, i32, ptr, i32, %struct.anon.4, i32, i32 }
%union.anon.3 = type { [4 x ptr] }
%struct.anon.4 = type { ptr, ptr, ptr, i32 }
%struct.uv__io_s = type { ptr, [2 x ptr], [2 x ptr], i32, i32, i32 }
%struct.uv_stream_s = type { ptr, ptr, i32, ptr, [2 x ptr], %union.anon, ptr, i32, i64, ptr, ptr, ptr, ptr, %struct.uv__io_s, [2 x ptr], [2 x ptr], ptr, i32, i32, ptr }
%union.anon = type { [4 x ptr] }

@.str = private unnamed_addr constant [10 x i8] c"/dev/null\00", align 1
@.str.1 = private unnamed_addr constant [2 x i8] c"/\00", align 1

; Function Attrs: nounwind uwtable
define dso_local void @uv__stream_init(ptr noundef %0, ptr noundef %1, i32 noundef %2) #0 {
  %4 = alloca ptr, align 8
  %5 = alloca ptr, align 8
  %6 = alloca i32, align 4
  %7 = alloca i32, align 4
  store ptr %0, ptr %4, align 8
  store ptr %1, ptr %5, align 8
  store i32 %2, ptr %6, align 4
  br label %8

8:                                                ; preds = %3
  %9 = load ptr, ptr %4, align 8
  %10 = load ptr, ptr %5, align 8
  %11 = getelementptr inbounds %struct.uv_handle_s, ptr %10, i32 0, i32 1
  store ptr %9, ptr %11, align 8
  %12 = load i32, ptr %6, align 4
  %13 = load ptr, ptr %5, align 8
  %14 = getelementptr inbounds %struct.uv_handle_s, ptr %13, i32 0, i32 2
  store i32 %12, ptr %14, align 8
  %15 = load ptr, ptr %5, align 8
  %16 = getelementptr inbounds %struct.uv_handle_s, ptr %15, i32 0, i32 7
  store i32 8, ptr %16, align 8
  br label %17

17:                                               ; preds = %8
  %18 = load ptr, ptr %4, align 8
  %19 = getelementptr inbounds %struct.uv_loop_s, ptr %18, i32 0, i32 2
  %20 = load ptr, ptr %5, align 8
  %21 = getelementptr inbounds %struct.uv_handle_s, ptr %20, i32 0, i32 4
  %22 = getelementptr inbounds [2 x ptr], ptr %21, i64 0, i64 0
  store ptr %19, ptr %22, align 8
  %23 = load ptr, ptr %4, align 8
  %24 = getelementptr inbounds %struct.uv_loop_s, ptr %23, i32 0, i32 2
  %25 = getelementptr inbounds [2 x ptr], ptr %24, i64 0, i64 1
  %26 = load ptr, ptr %25, align 8
  %27 = load ptr, ptr %5, align 8
  %28 = getelementptr inbounds %struct.uv_handle_s, ptr %27, i32 0, i32 4
  %29 = getelementptr inbounds [2 x ptr], ptr %28, i64 0, i64 1
  store ptr %26, ptr %29, align 8
  %30 = load ptr, ptr %5, align 8
  %31 = getelementptr inbounds %struct.uv_handle_s, ptr %30, i32 0, i32 4
  %32 = load ptr, ptr %5, align 8
  %33 = getelementptr inbounds %struct.uv_handle_s, ptr %32, i32 0, i32 4
  %34 = getelementptr inbounds [2 x ptr], ptr %33, i64 0, i64 1
  %35 = load ptr, ptr %34, align 8
  %36 = getelementptr inbounds [2 x ptr], ptr %35, i64 0, i64 0
  store ptr %31, ptr %36, align 8
  %37 = load ptr, ptr %5, align 8
  %38 = getelementptr inbounds %struct.uv_handle_s, ptr %37, i32 0, i32 4
  %39 = load ptr, ptr %4, align 8
  %40 = getelementptr inbounds %struct.uv_loop_s, ptr %39, i32 0, i32 2
  %41 = getelementptr inbounds [2 x ptr], ptr %40, i64 0, i64 1
  store ptr %38, ptr %41, align 8
  br label %42

42:                                               ; preds = %17
  %43 = load ptr, ptr %5, align 8
  %44 = getelementptr inbounds %struct.uv_handle_s, ptr %43, i32 0, i32 6
  store ptr null, ptr %44, align 8
  br label %45

45:                                               ; preds = %42
  %46 = load ptr, ptr %5, align 8
  %47 = getelementptr inbounds %struct.uv_stream_s, ptr %46, i32 0, i32 10
  store ptr null, ptr %47, align 8
  %48 = load ptr, ptr %5, align 8
  %49 = getelementptr inbounds %struct.uv_stream_s, ptr %48, i32 0, i32 9
  store ptr null, ptr %49, align 8
  %50 = load ptr, ptr %5, align 8
  %51 = getelementptr inbounds %struct.uv_stream_s, ptr %50, i32 0, i32 3
  store ptr null, ptr %51, align 8
  %52 = load ptr, ptr %5, align 8
  %53 = getelementptr inbounds %struct.uv_stream_s, ptr %52, i32 0, i32 16
  store ptr null, ptr %53, align 8
  %54 = load ptr, ptr %5, align 8
  %55 = getelementptr inbounds %struct.uv_stream_s, ptr %54, i32 0, i32 11
  store ptr null, ptr %55, align 8
  %56 = load ptr, ptr %5, align 8
  %57 = getelementptr inbounds %struct.uv_stream_s, ptr %56, i32 0, i32 12
  store ptr null, ptr %57, align 8
  %58 = load ptr, ptr %5, align 8
  %59 = getelementptr inbounds %struct.uv_stream_s, ptr %58, i32 0, i32 18
  store i32 -1, ptr %59, align 4
  %60 = load ptr, ptr %5, align 8
  %61 = getelementptr inbounds %struct.uv_stream_s, ptr %60, i32 0, i32 19
  store ptr null, ptr %61, align 8
  %62 = load ptr, ptr %5, align 8
  %63 = getelementptr inbounds %struct.uv_stream_s, ptr %62, i32 0, i32 17
  store i32 0, ptr %63, align 8
  br label %64

64:                                               ; preds = %45
  %65 = load ptr, ptr %5, align 8
  %66 = getelementptr inbounds %struct.uv_stream_s, ptr %65, i32 0, i32 14
  %67 = load ptr, ptr %5, align 8
  %68 = getelementptr inbounds %struct.uv_stream_s, ptr %67, i32 0, i32 14
  %69 = getelementptr inbounds [2 x ptr], ptr %68, i64 0, i64 0
  store ptr %66, ptr %69, align 8
  %70 = load ptr, ptr %5, align 8
  %71 = getelementptr inbounds %struct.uv_stream_s, ptr %70, i32 0, i32 14
  %72 = load ptr, ptr %5, align 8
  %73 = getelementptr inbounds %struct.uv_stream_s, ptr %72, i32 0, i32 14
  %74 = getelementptr inbounds [2 x ptr], ptr %73, i64 0, i64 1
  store ptr %71, ptr %74, align 8
  br label %75

75:                                               ; preds = %64
  br label %76

76:                                               ; preds = %75
  %77 = load ptr, ptr %5, align 8
  %78 = getelementptr inbounds %struct.uv_stream_s, ptr %77, i32 0, i32 15
  %79 = load ptr, ptr %5, align 8
  %80 = getelementptr inbounds %struct.uv_stream_s, ptr %79, i32 0, i32 15
  %81 = getelementptr inbounds [2 x ptr], ptr %80, i64 0, i64 0
  store ptr %78, ptr %81, align 8
  %82 = load ptr, ptr %5, align 8
  %83 = getelementptr inbounds %struct.uv_stream_s, ptr %82, i32 0, i32 15
  %84 = load ptr, ptr %5, align 8
  %85 = getelementptr inbounds %struct.uv_stream_s, ptr %84, i32 0, i32 15
  %86 = getelementptr inbounds [2 x ptr], ptr %85, i64 0, i64 1
  store ptr %83, ptr %86, align 8
  br label %87

87:                                               ; preds = %76
  %88 = load ptr, ptr %5, align 8
  %89 = getelementptr inbounds %struct.uv_stream_s, ptr %88, i32 0, i32 8
  store i64 0, ptr %89, align 8
  %90 = load ptr, ptr %4, align 8
  %91 = getelementptr inbounds %struct.uv_loop_s, ptr %90, i32 0, i32 32
  %92 = load i32, ptr %91, align 8
  %93 = icmp eq i32 %92, -1
  br i1 %93, label %94, label %108

94:                                               ; preds = %87
  %95 = call i32 @uv__open_cloexec(ptr noundef @.str, i32 noundef 0)
  store i32 %95, ptr %7, align 4
  %96 = load i32, ptr %7, align 4
  %97 = icmp slt i32 %96, 0
  br i1 %97, label %98, label %100

98:                                               ; preds = %94
  %99 = call i32 @uv__open_cloexec(ptr noundef @.str.1, i32 noundef 0)
  store i32 %99, ptr %7, align 4
  br label %100

100:                                              ; preds = %98, %94
  %101 = load i32, ptr %7, align 4
  %102 = icmp sge i32 %101, 0
  br i1 %102, label %103, label %107

103:                                              ; preds = %100
  %104 = load i32, ptr %7, align 4
  %105 = load ptr, ptr %4, align 8
  %106 = getelementptr inbounds %struct.uv_loop_s, ptr %105, i32 0, i32 32
  store i32 %104, ptr %106, align 8
  br label %107

107:                                              ; preds = %103, %100
  br label %108

108:                                              ; preds = %107, %87
  %109 = load ptr, ptr %5, align 8
  %110 = getelementptr inbounds %struct.uv_stream_s, ptr %109, i32 0, i32 13
  call void @uv__io_init(ptr noundef %110, ptr noundef @uv__stream_io, i32 noundef -1)
  ret void
}