; Function Attrs: nounwind uwtable
define dso_local void @uv__stream_init(ptr noundef %0, ptr noundef initializes((8, 20), (32, 48), (88, 92)) %1, i32 noundef %2) local_unnamed_addr #0 {
  %4 = getelementptr inbounds nuw i8, ptr %1, i64 8
  store ptr %0, ptr %4, align 8
  %5 = getelementptr inbounds nuw i8, ptr %1, i64 16
  store i32 %2, ptr %5, align 8
  %6 = getelementptr inbounds nuw i8, ptr %1, i64 88
  store i32 8, ptr %6, align 8
  %7 = getelementptr inbounds nuw i8, ptr %0, i64 16
  %8 = getelementptr inbounds nuw i8, ptr %1, i64 32
  store ptr %7, ptr %8, align 8
  %9 = getelementptr inbounds nuw i8, ptr %0, i64 24
  %10 = load ptr, ptr %9, align 8
  %11 = getelementptr inbounds nuw i8, ptr %1, i64 40
  store ptr %10, ptr %11, align 8
  store ptr %8, ptr %10, align 8
  store ptr %8, ptr %9, align 8
  %12 = getelementptr inbounds nuw i8, ptr %1, i64 80
  store ptr null, ptr %12, align 8
  %13 = getelementptr inbounds nuw i8, ptr %1, i64 104
  %14 = getelementptr inbounds nuw i8, ptr %1, i64 24
  store ptr null, ptr %14, align 8
  %15 = getelementptr inbounds nuw i8, ptr %1, i64 224
  store ptr null, ptr %15, align 8
  %16 = getelementptr inbounds nuw i8, ptr %1, i64 236
  tail call void @llvm.memset.p0.i64(ptr noundef nonnull align 8 dereferenceable(32) %13, i8 0, i64 32, i1 false)
  store i32 -1, ptr %16, align 4
  %17 = getelementptr inbounds nuw i8, ptr %1, i64 240
  store ptr null, ptr %17, align 8
  %18 = getelementptr inbounds nuw i8, ptr %1, i64 232
  store i32 0, ptr %18, align 8
  %19 = getelementptr inbounds nuw i8, ptr %1, i64 192
  store ptr %19, ptr %19, align 8
  %20 = getelementptr inbounds nuw i8, ptr %1, i64 200
  store ptr %19, ptr %20, align 8
  %21 = getelementptr inbounds nuw i8, ptr %1, i64 208
  store ptr %21, ptr %21, align 8
  %22 = getelementptr inbounds nuw i8, ptr %1, i64 216
  store ptr %21, ptr %22, align 8
  %23 = getelementptr inbounds nuw i8, ptr %1, i64 96
  store i64 0, ptr %23, align 8
  %24 = getelementptr inbounds nuw i8, ptr %0, i64 768
  %25 = load i32, ptr %24, align 8
  %26 = icmp eq i32 %25, -1
  br i1 %26, label %27, label %33

27:                                               ; preds = %3
  %28 = tail call i32 @uv__open_cloexec(ptr noundef nonnull @.str, i32 noundef 0) #12
  %29 = icmp slt i32 %28, 0
  br i1 %29, label %30, label %.thread

30:                                               ; preds = %27
  %31 = tail call i32 @uv__open_cloexec(ptr noundef nonnull @.str.1, i32 noundef 0) #12
  %32 = icmp sgt i32 %31, -1
  br i1 %32, label %.thread, label %33

.thread:                                          ; preds = %27, %30
  %.039 = phi i32 [ %31, %30 ], [ %28, %27 ]
  store i32 %.039, ptr %24, align 8
  br label %33

33:                                               ; preds = %30, %.thread, %3
  %34 = getelementptr inbounds nuw i8, ptr %1, i64 136
  tail call void @uv__io_init(ptr noundef nonnull %34, ptr noundef nonnull @uv__stream_io, i32 noundef -1) #12
  ret void
}